	.text
	.file	"3.59.c"
	.globl	store_prod                      # -- Begin function store_prod
	.p2align	4, 0x90
	.type	store_prod,@function
store_prod:                             # @store_prod
	.cfi_startproc
# %bb.0:
	pushq	%rbp
	.cfi_def_cfa_offset 16
	.cfi_offset %rbp, -16
	movq	%rsp, %rbp
	.cfi_def_cfa_register %rbp
	movq	%rdi, -8(%rbp)
	movq	%rsi, -16(%rbp)
	movq	%rdx, -24(%rbp)
	movq	-16(%rbp), %rax
	movq	-24(%rbp), %rcx
	imulq	%rcx
	movq	%rax, %rcx
	movq	-8(%rbp), %rax
	movq	%rdx, 8(%rax)
	movq	%rcx, (%rax)
	popq	%rbp
	.cfi_def_cfa %rsp, 8
	retq
.Lfunc_end0:
	.size	store_prod, .Lfunc_end0-store_prod
	.cfi_endproc
                                        # -- End function
	.globl	main                            # -- Begin function main
	.p2align	4, 0x90
	.type	main,@function
main:                                   # @main
	.cfi_startproc
# %bb.0:
	pushq	%rbp
	.cfi_def_cfa_offset 16
	.cfi_offset %rbp, -16
	movq	%rsp, %rbp
	.cfi_def_cfa_register %rbp
	movl	$0, -4(%rbp)
	xorl	%eax, %eax
	popq	%rbp
	.cfi_def_cfa %rsp, 8
	retq
.Lfunc_end1:
	.size	main, .Lfunc_end1-main
	.cfi_endproc
                                        # -- End function
	.ident	"clang version 15.0.7"
	.section	".note.GNU-stack","",@progbits
	.addrsig
